target datalayout = "e-m:e-p270:32:32-p271:32:32-p272:64:64-i64:64-i128:128-f80:128-n8:16:32:64-S128"
target triple = "x86_64-pc-linux-gnu"

; Function Attrs: null_pointer_is_valid sspstrong uwtable
define internal i32 @dissect_hartip_udp(ptr noundef %0, ptr noundef %1, ptr noundef %2, ptr noundef %3) #0 {
  %5 = alloca i32, align 4
  %6 = alloca ptr, align 8
  %7 = alloca ptr, align 8
  %8 = alloca ptr, align 8
  %9 = alloca ptr, align 8
  %10 = alloca i32, align 4
  %11 = alloca ptr, align 8
  %12 = alloca i32, align 4
  store ptr %0, ptr %6, align 8
  store ptr %1, ptr %7, align 8
  store ptr %2, ptr %8, align 8
  store ptr %3, ptr %9, align 8
  call void @llvm.lifetime.start.p0(i64 4, ptr %10) #5
  store i32 0, ptr %10, align 4
  call void @llvm.lifetime.start.p0(i64 8, ptr %11) #5
  %13 = load ptr, ptr %6, align 8
  %14 = call zeroext i8 @tvb_get_uint8(ptr noundef %13, i32 noundef 1)
  %15 = zext i8 %14 to i32
  %16 = call ptr @try_val_to_str(i32 noundef %15, ptr noundef @hartip_message_type_values)
  store ptr %16, ptr %11, align 8
  %17 = load ptr, ptr %11, align 8
  %18 = icmp ne ptr %17, null
  br i1 %18, label %20, label %19

19:                                               ; preds = %4
  store i32 0, ptr %5, align 4
  store i32 1, ptr %12, align 4
  br label %44

20:                                               ; preds = %4
  %21 = load ptr, ptr %6, align 8
  %22 = call zeroext i8 @tvb_get_uint8(ptr noundef %21, i32 noundef 2)
  %23 = zext i8 %22 to i32
  %24 = call ptr @try_val_to_str(i32 noundef %23, ptr noundef @hartip_message_id_values)
  store ptr %24, ptr %11, align 8
  %25 = load ptr, ptr %11, align 8
  %26 = icmp ne ptr %25, null
  br i1 %26, label %28, label %27

27:                                               ; preds = %20
  store i32 0, ptr %5, align 4
  store i32 1, ptr %12, align 4
  br label %44

28:                                               ; preds = %20
  br label %29

29:                                               ; preds = %34, %28
  %30 = load ptr, ptr %6, align 8
  %31 = load i32, ptr %10, align 4
  %32 = call i32 @tvb_reported_length_remaining(ptr noundef %30, i32 noundef %31)
  %33 = icmp sge i32 %32, 8
  br i1 %33, label %34, label %42

34:                                               ; preds = %29
  %35 = load ptr, ptr %6, align 8
  %36 = load ptr, ptr %7, align 8
  %37 = load ptr, ptr %8, align 8
  %38 = load i32, ptr %10, align 4
  %39 = call i32 @dissect_hartip_common(ptr noundef %35, ptr noundef %36, ptr noundef %37, i32 noundef %38)
  %40 = load i32, ptr %10, align 4
  %41 = add i32 %40, %39
  store i32 %41, ptr %10, align 4
  br label %29, !llvm.loop !6

42:                                               ; preds = %29
  %43 = load i32, ptr %10, align 4
  store i32 %43, ptr %5, align 4
  store i32 1, ptr %12, align 4
  br label %44

44:                                               ; preds = %42, %27, %19
  call void @llvm.lifetime.end.p0(i64 8, ptr %11) #5
  call void @llvm.lifetime.end.p0(i64 4, ptr %10) #5
  %45 = load i32, ptr %5, align 4
  ret i32 %45
}