; Function Attrs: null_pointer_is_valid sspstrong uwtable
define internal noundef i32 @dissect_hartip_udp(ptr noundef %0, ptr noundef %1, ptr noundef %2, ptr readnone captures(none) %3) #0 {
  %5 = tail call zeroext i8 @tvb_get_uint8(ptr noundef %0, i32 noundef 1)
  %6 = zext i8 %5 to i32
  %7 = tail call ptr @try_val_to_str(i32 noundef %6, ptr noundef nonnull @hartip_message_type_values)
  %.not = icmp eq ptr %7, null
  br i1 %.not, label %.loopexit, label %8

8:                                                ; preds = %4
  %9 = tail call zeroext i8 @tvb_get_uint8(ptr noundef %0, i32 noundef 2)
  %10 = zext i8 %9 to i32
  %11 = tail call ptr @try_val_to_str(i32 noundef %10, ptr noundef nonnull @hartip_message_id_values)
  %.not13 = icmp eq ptr %11, null
  br i1 %.not13, label %.loopexit, label %.preheader

.preheader:                                       ; preds = %8
  %12 = tail call i32 @tvb_reported_length_remaining(ptr noundef %0, i32 noundef 0)
  %13 = icmp sgt i32 %12, 7
  br i1 %13, label %.lr.ph, label %.loopexit

.lr.ph:                                           ; preds = %.preheader, %.lr.ph
  %.014 = phi i32 [ %15, %.lr.ph ], [ 0, %.preheader ]
  %14 = tail call fastcc i32 @dissect_hartip_common(ptr noundef %0, ptr noundef %1, ptr noundef %2, i32 noundef %.014)
  %15 = add i32 %14, %.014
  %16 = tail call i32 @tvb_reported_length_remaining(ptr noundef %0, i32 noundef %15)
  %17 = icmp sgt i32 %16, 7
  br i1 %17, label %.lr.ph, label %.loopexit, !llvm.loop !6

.loopexit:                                        ; preds = %.lr.ph, %.preheader, %8, %4
  %.012 = phi i32 [ 0, %4 ], [ 0, %8 ], [ 0, %.preheader ], [ %15, %.lr.ph ]
  ret i32 %.012
}